(lp0
I4
a(i__main__
Objekt
p1
(dp2
S'parametr'
p3
NsS'typ'
p4
I1
sS'id'
p5
I1
sba(i__main__
Objekt
p6
(dp7
g3
Nsg4
I2
sg5
I2
sba(i__main__
Objekt
p8
(dp9
g3
Nsg4
I4
sg5
I3
sba(i__main__
Objekt
p10
(dp11
g3
Nsg4
I2
sg5
I4
sba.