(lp0
I9
a(i__main__
Objekt
p1
(dp2
S'parametr'
p3
S'45'
p4
sS'typ'
p5
I6
sS'id'
p6
I5
sba(i__main__
Objekt
p7
(dp8
g3
Nsg5
I4
sg6
I1
sba(i__main__
Objekt
p9
(dp10
g3
S'45'
p11
sg5
I10
sg6
I7
sba(i__main__
Objekt
p12
(dp13
g3
S'65'
p14
sg5
I8
sg6
I8
sba(i__main__
Objekt
p15
(dp16
g3
Nsg5
I2
sg6
I9
sba.